ccopy_reg
_reconstructor
p0
(cgoogle.oauth2.credentials
Credentials
p1
c__builtin__
object
p2
Ntp3
Rp4
(dp5
S'_token_uri'
p6
Vhttps://oauth2.googleapis.com/token
p7
sS'_scopes'
p8
(lp9
S'https://www.googleapis.com/auth/calendar.readonly'
p10
asS'_id_token'
p11
NsS'token'
p12
Vya29.Gl3xBjkHms6oPF4WGFNIOsqXBP7c5ZjdCnwK91TPEZVy8cemSQu_Xn8Y2XpSvtzDjOCWfU_U1xLjzBUZyTmQ_eCpzXqwVgqGNMs6FWiu4D7XyoyBS1sw3VNt4S5FyDU
p13
sS'_refresh_token'
p14
V1/Jmr64WfapbkK-K-vSyd_OZqWbP8yl325rGqa7HX1jpg
p15
sS'_client_secret'
p16
VQMOkaxaGBhMZ3DS--WFcNvO7
p17
sS'_client_id'
p18
V580917741122-0dd07drmva5rqsevkios7qv6a6a5qbsd.apps.googleusercontent.com
p19
sS'expiry'
p20
cdatetime
datetime
p21
(S'\x07\xe3\x04\x14\x07\x1f;\t\xee>'
p22
tp23
Rp24
sb.